; Function Attrs: mustprogress uwtable
define hidden void @_ZN4cvc58internal15BoundVarManager11setNameAttrENS0_12NodeTemplateILb1EEERKNSt7__cxx1112basic_stringIcSt11char_traitsIcESaIcEEE(ptr noundef readonly captures(none) %0, ptr noundef nonnull align 8 dereferenceable(32) %1) local_unnamed_addr #5 align 2 personality ptr @__gxx_personality_v0 {
  %3 = alloca %"class.cvc5::internal::expr::Attribute", align 1
  %4 = load ptr, ptr %0, align 8, !tbaa !20
  %5 = getelementptr inbounds nuw i8, ptr %4, i64 16
  %6 = load ptr, ptr %5, align 8, !tbaa !23
  %7 = getelementptr inbounds nuw i8, ptr %6, i64 80
  %8 = load ptr, ptr %7, align 8, !tbaa !27
  call void @llvm.lifetime.start.p0(i64 1, ptr nonnull %3) #20
  call void @_ZN4cvc58internal4expr4attr16AttributeManager12setAttributeINS1_9AttributeINS2_10VarNameTagENSt7__cxx1112basic_stringIcSt11char_traitsIcESaIcEEEEEEEvPNS1_9NodeValueERKT_RKNSG_10value_typeE(ptr noundef nonnull align 8 dereferenceable(344) %8, ptr noundef nonnull %4, ptr noundef nonnull align 1 dereferenceable(1) %3, ptr noundef nonnull align 8 dereferenceable(32) %1)
  call void @llvm.lifetime.end.p0(i64 1, ptr nonnull %3) #20
  ret void
}